; Function Attrs: mustprogress nounwind uwtable
define hidden void @_ZN18GenericWaitBarrier6disarmEv(ptr noundef nonnull align 8 dereferenceable(3084) %0) local_unnamed_addr #0 align 2 {
  %2 = getelementptr inbounds i8, ptr %0, i64 2952
  %3 = load volatile i32, ptr %2, align 8
  tail call void asm sideeffect "", "~{memory},~{dirflag},~{fpsr},~{flags}"() #4, !srcloc !6
  tail call void asm sideeffect "", "~{memory},~{dirflag},~{fpsr},~{flags}"() #4, !srcloc !6
  store volatile i32 0, ptr %2, align 8
  %4 = getelementptr inbounds i8, ptr %0, i64 8
  %5 = and i32 %3, 15
  %6 = zext nneg i32 %5 to i64
  %7 = getelementptr inbounds [16 x %"class.GenericWaitBarrier::Cell"], ptr %4, i64 0, i64 %6
  tail call void @_ZN18GenericWaitBarrier4Cell6disarmEi(ptr noundef nonnull align 8 dereferenceable(172) %7, i32 poison)
  tail call void asm sideeffect "lock; addl $$0,0(%rsp)", "~{cc},~{memory},~{dirflag},~{fpsr},~{flags}"() #4, !srcloc !7
  tail call void asm sideeffect "", "~{memory},~{dirflag},~{fpsr},~{flags}"() #4, !srcloc !6
  ret void
}